target datalayout = "e-m:e-p270:32:32-p271:32:32-p272:64:64-i64:64-i128:128-f80:128-n8:16:32:64-S128"
target triple = "x86_64-pc-linux-gnu"

%struct.XIEventMask = type { i32, i32, ptr }
%struct.SDL_Rect = type { i32, i32, i32, i32 }
%struct.SDL_VideoData = type { ptr, ptr, i32, ptr, i64, i32, ptr, i32, i64, i64, %struct.X11_ClipboardData, %struct.X11_ClipboardData, ptr, i64, %struct.X11_SettingsData, i8, %struct.anon.1, [256 x i32], i8, i8, i8, i64, i8, %struct.SDL_Point, i32, ptr, i32, i8, i32, %struct.anon.2, i8, i64, ptr, ptr, i8, i8, i8 }
%struct.X11_ClipboardData = type { ptr, ptr, ptr, i64, i32 }
%struct.X11_SettingsData = type { ptr }
%struct.anon.1 = type { i64, i64, i64, i64, i64, i64, i64, i64, i64, i64, i64, i64, i64, i64, i64, i64, i64, i64, i64, i64, i64, i64, i64, i64, i64, i64, i64, i64, i64, i64, i64, i64, i64, i64, i64, i64, i64, i64, i64, i64, i64, i64, i64, i64, i64, i64, i64, i64, i64, i64, i64, i64, i64 }
%struct.SDL_Point = type { i32, i32 }
%struct.anon.2 = type { ptr, i32, i32, i32, i16, i32, i32 }
%struct.SDL_Window = type { i32, ptr, ptr, i32, i32, i32, i32, i32, i32, i32, i32, float, float, i32, i32, i64, i64, float, i8, i8, i32, i32, %struct.SDL_Rect, %struct.SDL_Rect, %struct.SDL_Rect, i8, i8, i8, %struct.SDL_DisplayMode, %struct.SDL_DisplayMode, %struct.SDL_HDROutputProperties, float, ptr, i8, i8, i8, i8, i8, i8, i8, i8, i8, i32, i32, i32, i32, %struct.SDL_Rect, i32, i8, %struct.SDL_Rect, i32, %struct.SDL_Rect, ptr, ptr, i32, float, i32, i32, ptr, ptr, ptr, ptr, ptr, ptr, ptr, ptr, ptr }
%struct.SDL_DisplayMode = type { i32, i32, i32, i32, float, float, i32, i32, ptr }
%struct.SDL_HDROutputProperties = type { float, float }
%struct.SDL_WindowData = type { ptr, i64, ptr, i64, i8, %struct.XShmSegmentInfo, ptr, ptr, ptr, i8, i32, i32, i32, i32, i8, i8, i8, i64, i32, i64, i8, %struct.SDL_Point, %struct.XConfigureEvent, %struct.XConfigureEvent, ptr, i64, i64, i64, i8, i64, ptr, i8, [4 x i64], %struct.SDL_Rect, i64, %struct._XSyncValue, i8, %struct.SDL_Rect, %struct.SDL_DisplayMode, i32, i32, i8, i8, i8, i8, i8, i8, i8, i8, i32, %struct.XPoint, ptr, ptr, i32, i32, i8 }
%struct.XShmSegmentInfo = type { i64, i32, ptr, i32 }
%struct.XConfigureEvent = type { i32, i64, i32, ptr, i64, i64, i32, i32, i32, i32, i32, i64, i32 }
%struct._XSyncValue = type { i32, i32 }
%struct.XPoint = type { i16, i16 }
%struct.XIGrabModifiers = type { i32, i32 }

@xinput2_initialized = internal global i8 0, align 1
@xinput2_multitouch_supported = internal global i8 0, align 1
@X11_XIGrabTouchBegin = external global ptr, align 8

; Function Attrs: nounwind uwtable
define hidden zeroext i1 @X11_Xinput2IsMultitouchSupported() #0 {
  %1 = load i8, ptr @xinput2_initialized, align 1, !range !3, !noundef !4
  %2 = trunc i8 %1 to i1
  br i1 %2, label %3, label %6

3:                                                ; preds = %0
  %4 = load i8, ptr @xinput2_multitouch_supported, align 1, !range !3, !noundef !4
  %5 = trunc i8 %4 to i1
  br label %6

6:                                                ; preds = %3, %0
  %7 = phi i1 [ false, %0 ], [ %5, %3 ]
  ret i1 %7
}

; Function Attrs: nounwind uwtable
define hidden void @X11_Xinput2GrabTouch(ptr noundef %0, ptr noundef %1) #0 {
  %3 = alloca ptr, align 8
  %4 = alloca ptr, align 8
  %5 = alloca ptr, align 8
  %6 = alloca ptr, align 8
  %7 = alloca [4 x i8], align 1
  %8 = alloca %struct.XIGrabModifiers, align 4
  %9 = alloca %struct.XIEventMask, align 8
  %10 = alloca i32, align 4
  store ptr %0, ptr %3, align 8
  store ptr %1, ptr %4, align 8
  call void @llvm.lifetime.start.p0(i64 8, ptr %5) #6
  %11 = load ptr, ptr %4, align 8
  %12 = getelementptr inbounds nuw %struct.SDL_Window, ptr %11, i32 0, i32 59
  %13 = load ptr, ptr %12, align 8
  store ptr %13, ptr %5, align 8
  call void @llvm.lifetime.start.p0(i64 8, ptr %6) #6
  %14 = load ptr, ptr %5, align 8
  %15 = getelementptr inbounds nuw %struct.SDL_WindowData, ptr %14, i32 0, i32 24
  %16 = load ptr, ptr %15, align 8
  %17 = getelementptr inbounds nuw %struct.SDL_VideoData, ptr %16, i32 0, i32 0
  %18 = load ptr, ptr %17, align 8
  store ptr %18, ptr %6, align 8
  call void @llvm.lifetime.start.p0(i64 4, ptr %7) #6
  call void @llvm.memset.p0.i64(ptr align 1 %7, i8 0, i64 4, i1 false)
  call void @llvm.lifetime.start.p0(i64 8, ptr %8) #6
  call void @llvm.lifetime.start.p0(i64 16, ptr %9) #6
  %19 = call zeroext i1 @X11_Xinput2IsMultitouchSupported()
  br i1 %19, label %21, label %20

20:                                               ; preds = %2
  store i32 1, ptr %10, align 4
  br label %62

21:                                               ; preds = %2
  %22 = getelementptr inbounds nuw %struct.XIGrabModifiers, ptr %8, i32 0, i32 0
  store i32 -2147483648, ptr %22, align 4
  %23 = getelementptr inbounds nuw %struct.XIGrabModifiers, ptr %8, i32 0, i32 1
  store i32 0, ptr %23, align 4
  %24 = getelementptr inbounds nuw %struct.XIEventMask, ptr %9, i32 0, i32 0
  store i32 0, ptr %24, align 8
  %25 = getelementptr inbounds nuw %struct.XIEventMask, ptr %9, i32 0, i32 1
  store i32 4, ptr %25, align 4
  %26 = getelementptr inbounds [4 x i8], ptr %7, i64 0, i64 0
  %27 = getelementptr inbounds nuw %struct.XIEventMask, ptr %9, i32 0, i32 2
  store ptr %26, ptr %27, align 8
  %28 = getelementptr inbounds nuw %struct.XIEventMask, ptr %9, i32 0, i32 2
  %29 = load ptr, ptr %28, align 8
  %30 = getelementptr inbounds i8, ptr %29, i64 2
  %31 = load i8, ptr %30, align 1
  %32 = zext i8 %31 to i32
  %33 = or i32 %32, 4
  %34 = trunc i32 %33 to i8
  store i8 %34, ptr %30, align 1
  %35 = getelementptr inbounds nuw %struct.XIEventMask, ptr %9, i32 0, i32 2
  %36 = load ptr, ptr %35, align 8
  %37 = getelementptr inbounds i8, ptr %36, i64 2
  %38 = load i8, ptr %37, align 1
  %39 = zext i8 %38 to i32
  %40 = or i32 %39, 8
  %41 = trunc i32 %40 to i8
  store i8 %41, ptr %37, align 1
  %42 = getelementptr inbounds nuw %struct.XIEventMask, ptr %9, i32 0, i32 2
  %43 = load ptr, ptr %42, align 8
  %44 = getelementptr inbounds i8, ptr %43, i64 2
  %45 = load i8, ptr %44, align 1
  %46 = zext i8 %45 to i32
  %47 = or i32 %46, 16
  %48 = trunc i32 %47 to i8
  store i8 %48, ptr %44, align 1
  %49 = getelementptr inbounds nuw %struct.XIEventMask, ptr %9, i32 0, i32 2
  %50 = load ptr, ptr %49, align 8
  %51 = getelementptr inbounds i8, ptr %50, i64 0
  %52 = load i8, ptr %51, align 1
  %53 = zext i8 %52 to i32
  %54 = or i32 %53, 64
  %55 = trunc i32 %54 to i8
  store i8 %55, ptr %51, align 1
  %56 = load ptr, ptr @X11_XIGrabTouchBegin, align 8
  %57 = load ptr, ptr %6, align 8
  %58 = load ptr, ptr %5, align 8
  %59 = getelementptr inbounds nuw %struct.SDL_WindowData, ptr %58, i32 0, i32 1
  %60 = load i64, ptr %59, align 8
  %61 = call i32 %56(ptr noundef %57, i32 noundef 0, i64 noundef %60, i32 noundef 1, ptr noundef %9, i32 noundef 1, ptr noundef %8)
  store i32 0, ptr %10, align 4
  br label %62

62:                                               ; preds = %21, %20
  call void @llvm.lifetime.end.p0(i64 16, ptr %9) #6
  call void @llvm.lifetime.end.p0(i64 8, ptr %8) #6
  call void @llvm.lifetime.end.p0(i64 4, ptr %7) #6
  call void @llvm.lifetime.end.p0(i64 8, ptr %6) #6
  call void @llvm.lifetime.end.p0(i64 8, ptr %5) #6
  %63 = load i32, ptr %10, align 4
  switch i32 %63, label %65 [
    i32 0, label %64
    i32 1, label %64
  ]

64:                                               ; preds = %62, %62
  ret void

65:                                               ; preds = %62
  unreachable
}