; Function Attrs: nounwind uwtable
define hidden void @X11_Xinput2GrabTouch(ptr noundef readnone captures(none) %0, ptr noundef readonly captures(none) %1) local_unnamed_addr #0 {
  %3 = alloca [4 x i8], align 4
  %4 = alloca %struct.XIGrabModifiers, align 4
  %5 = alloca %struct.XIEventMask, align 8
  %6 = getelementptr inbounds nuw i8, ptr %1, i64 392
  %7 = load ptr, ptr %6, align 8
  %8 = getelementptr inbounds nuw i8, ptr %7, i64 336
  %9 = load ptr, ptr %8, align 8
  %10 = load ptr, ptr %9, align 8
  call void @llvm.lifetime.start.p0(i64 4, ptr nonnull %3) #8
  store i32 1835072, ptr %3, align 4
  call void @llvm.lifetime.start.p0(i64 8, ptr nonnull %4) #8
  call void @llvm.lifetime.start.p0(i64 16, ptr nonnull %5) #8
  %.b1.i = load i1, ptr @xinput2_initialized, align 1
  %11 = load i8, ptr @xinput2_multitouch_supported, align 1, !range !3
  %12 = trunc nuw i8 %11 to i1
  %13 = select i1 %.b1.i, i1 %12, i1 false
  br i1 %13, label %14, label %22

14:                                               ; preds = %2
  store i32 -2147483648, ptr %4, align 4
  %15 = getelementptr inbounds nuw i8, ptr %4, i64 4
  store i32 0, ptr %15, align 4
  store i32 0, ptr %5, align 8
  %16 = getelementptr inbounds nuw i8, ptr %5, i64 4
  store i32 4, ptr %16, align 4
  %17 = getelementptr inbounds nuw i8, ptr %5, i64 8
  store ptr %3, ptr %17, align 8
  %18 = load ptr, ptr @X11_XIGrabTouchBegin, align 8
  %19 = getelementptr inbounds nuw i8, ptr %7, i64 8
  %20 = load i64, ptr %19, align 8
  %21 = call i32 %18(ptr noundef %10, i32 noundef 0, i64 noundef %20, i32 noundef 1, ptr noundef nonnull %5, i32 noundef 1, ptr noundef nonnull %4) #8
  br label %22

22:                                               ; preds = %2, %14
  call void @llvm.lifetime.end.p0(i64 16, ptr nonnull %5) #8
  call void @llvm.lifetime.end.p0(i64 8, ptr nonnull %4) #8
  call void @llvm.lifetime.end.p0(i64 4, ptr nonnull %3) #8
  ret void
}